; Function Attrs: mustprogress nounwind uwtable
define hidden noundef ptr @_ZN11JvmtiExport30get_all_native_method_prefixesEPi(ptr noundef %0) local_unnamed_addr #1 align 2 {
  %2 = load i32, ptr @_ZN7Threads18_number_of_threadsE, align 4
  %3 = icmp eq i32 %2, 0
  br i1 %3, label %7, label %4

4:                                                ; preds = %1
  %5 = load volatile i32, ptr @_ZN20SafepointSynchronize6_stateE, align 4
  %6 = icmp eq i32 %5, 2
  br i1 %6, label %7, label %9

7:                                                ; preds = %4, %1
  %8 = tail call noundef ptr @_ZN12JvmtiEnvBase30get_all_native_method_prefixesEPi(ptr noundef %0) #19
  br label %_ZN11MutexLockerD2Ev.exit

9:                                                ; preds = %4
  %10 = load ptr, ptr @JvmtiThreadState_lock, align 8
  %.not.i.i = icmp eq ptr %10, null
  br i1 %.not.i.i, label %_ZN11MutexLockerC2EP5MutexNS0_18SafepointCheckFlagE.exit.thread, label %12

_ZN11MutexLockerC2EP5MutexNS0_18SafepointCheckFlagE.exit.thread: ; preds = %9
  %11 = tail call noundef ptr @_ZN12JvmtiEnvBase30get_all_native_method_prefixesEPi(ptr noundef %0) #19
  br label %_ZN11MutexLockerD2Ev.exit

12:                                               ; preds = %9
  tail call void @_ZN5Mutex4lockEv(ptr noundef nonnull align 8 dereferenceable(104) %10) #19
  %13 = tail call noundef ptr @_ZN12JvmtiEnvBase30get_all_native_method_prefixesEPi(ptr noundef %0) #19
  tail call void @_ZN5Mutex6unlockEv(ptr noundef nonnull align 8 dereferenceable(104) %10) #19
  br label %_ZN11MutexLockerD2Ev.exit

_ZN11MutexLockerD2Ev.exit:                        ; preds = %12, %_ZN11MutexLockerC2EP5MutexNS0_18SafepointCheckFlagE.exit.thread, %7
  %.0 = phi ptr [ %8, %7 ], [ %11, %_ZN11MutexLockerC2EP5MutexNS0_18SafepointCheckFlagE.exit.thread ], [ %13, %12 ]
  ret ptr %.0
}